target datalayout = "e-m:e-p270:32:32-p271:32:32-p272:64:64-i64:64-i128:128-f80:128-n8:16:32:64-S128"
target triple = "x86_64-pc-linux-gnu"

%struct.expert_field = type { i32, i32 }

@.str.238 = private unnamed_addr constant [20 x i8] c"an unsigned integer\00", align 1
@ei_type_length_mismatch_error = internal global %struct.expert_field zeroinitializer, align 4
@.str.254 = private unnamed_addr constant [34 x i8] c"Trying to fetch %s with length %d\00", align 1
@ei_type_length_mismatch_warn = internal global %struct.expert_field zeroinitializer, align 4

; Function Attrs: null_pointer_is_valid sspstrong uwtable
define internal void @report_type_length_mismatch(ptr noundef %0, ptr noundef %1, i32 noundef %2, i1 noundef zeroext %3) #0 {
  %5 = alloca ptr, align 8
  %6 = alloca ptr, align 8
  %7 = alloca i32, align 4
  %8 = alloca i8, align 1
  store ptr %0, ptr %5, align 8
  store ptr %1, ptr %6, align 8
  store i32 %2, ptr %7, align 4
  %9 = zext i1 %3 to i8
  store i8 %9, ptr %8, align 1
  %10 = load i8, ptr %8, align 1, !range !10, !noundef !11
  %11 = trunc i8 %10 to i1
  br i1 %11, label %12, label %17

12:                                               ; preds = %4
  %13 = load ptr, ptr %5, align 8
  %14 = load ptr, ptr %6, align 8
  %15 = load i32, ptr %7, align 4
  %16 = call ptr (ptr, ptr, ptr, ptr, ...) @expert_add_info_format(ptr noundef null, ptr noundef %13, ptr noundef @ei_type_length_mismatch_error, ptr noundef @.str.254, ptr noundef %14, i32 noundef %15)
  br label %22

17:                                               ; preds = %4
  %18 = load ptr, ptr %5, align 8
  %19 = load ptr, ptr %6, align 8
  %20 = load i32, ptr %7, align 4
  %21 = call ptr (ptr, ptr, ptr, ptr, ...) @expert_add_info_format(ptr noundef null, ptr noundef %18, ptr noundef @ei_type_length_mismatch_warn, ptr noundef @.str.254, ptr noundef %19, i32 noundef %20)
  br label %22

22:                                               ; preds = %17, %12
  %23 = load i8, ptr %8, align 1, !range !10, !noundef !11
  %24 = trunc i8 %23 to i1
  br i1 %24, label %25, label %26

25:                                               ; preds = %22
  call void @except_throw(i64 noundef 1, i64 noundef 3, ptr noundef null) #27
  unreachable

26:                                               ; preds = %22
  ret void
}

; Function Attrs: inlinehint nounwind null_pointer_is_valid sspstrong uwtable
define internal i64 @ws_sign_ext64(i64 noundef %0, i32 noundef %1) #11 {
  %3 = alloca i64, align 8
  %4 = alloca i64, align 8
  %5 = alloca i32, align 4
  store i64 %0, ptr %4, align 8
  store i32 %1, ptr %5, align 4
  br label %6

6:                                                ; preds = %2
  br label %7

7:                                                ; preds = %6
  %8 = load i32, ptr %5, align 4
  %9 = icmp eq i32 %8, 0
  br i1 %9, label %13, label %10

10:                                               ; preds = %7
  %11 = load i32, ptr %5, align 4
  %12 = icmp eq i32 %11, 64
  br i1 %12, label %13, label %15

13:                                               ; preds = %10, %7
  %14 = load i64, ptr %4, align 8
  store i64 %14, ptr %3, align 8
  br label %31

15:                                               ; preds = %10
  %16 = load i64, ptr %4, align 8
  %17 = load i32, ptr %5, align 4
  %18 = sub i32 %17, 1
  %19 = zext i32 %18 to i64
  %20 = shl i64 1, %19
  %21 = and i64 %16, %20
  %22 = icmp ne i64 %21, 0
  br i1 %22, label %23, label %29

23:                                               ; preds = %15
  %24 = load i32, ptr %5, align 4
  %25 = zext i32 %24 to i64
  %26 = shl i64 -1, %25
  %27 = load i64, ptr %4, align 8
  %28 = or i64 %27, %26
  store i64 %28, ptr %4, align 8
  br label %29

29:                                               ; preds = %23, %15
  %30 = load i64, ptr %4, align 8
  store i64 %30, ptr %3, align 8
  br label %31

31:                                               ; preds = %29, %13
  %32 = load i64, ptr %3, align 8
  ret i64 %32
}

; Function Attrs: inlinehint null_pointer_is_valid sspstrong uwtable
define internal i64 @get_uint64_value(ptr noundef %0, ptr noundef %1, i32 noundef %2, i32 noundef %3, i32 noundef %4) #15 {
  %6 = alloca ptr, align 8
  %7 = alloca ptr, align 8
  %8 = alloca i32, align 4
  %9 = alloca i32, align 4
  %10 = alloca i32, align 4
  %11 = alloca i64, align 8
  store ptr %0, ptr %6, align 8
  store ptr %1, ptr %7, align 8
  store i32 %2, ptr %8, align 4
  store i32 %3, ptr %9, align 4
  store i32 %4, ptr %10, align 4
  call void @llvm.lifetime.start.p0(i64 8, ptr %11) #24
  %12 = load ptr, ptr %7, align 8
  %13 = load i32, ptr %8, align 4
  %14 = load i32, ptr %9, align 4
  %15 = load i32, ptr %10, align 4
  %16 = call i64 @tvb_get_uint64_with_length(ptr noundef %12, i32 noundef %13, i32 noundef %14, i32 noundef %15)
  store i64 %16, ptr %11, align 8
  %17 = load i32, ptr %9, align 4
  %18 = icmp ult i32 %17, 1
  br i1 %18, label %22, label %19

19:                                               ; preds = %5
  %20 = load i32, ptr %9, align 4
  %21 = icmp ugt i32 %20, 8
  br i1 %21, label %22, label %27

22:                                               ; preds = %19, %5
  %23 = load ptr, ptr %6, align 8
  %24 = load i32, ptr %9, align 4
  %25 = load i32, ptr %9, align 4
  %26 = icmp ult i32 %25, 1
  call void @report_type_length_mismatch(ptr noundef %23, ptr noundef @.str.238, i32 noundef %24, i1 noundef zeroext %26)
  br label %27

27:                                               ; preds = %22, %19
  %28 = load i64, ptr %11, align 8
  call void @llvm.lifetime.end.p0(i64 8, ptr %11) #24
  ret i64 %28
}

; Function Attrs: inlinehint null_pointer_is_valid sspstrong uwtable
define internal i64 @get_int64_value(ptr noundef %0, ptr noundef %1, i32 noundef %2, i32 noundef %3, i32 noundef %4) #15 {
  %6 = alloca ptr, align 8
  %7 = alloca ptr, align 8
  %8 = alloca i32, align 4
  %9 = alloca i32, align 4
  %10 = alloca i32, align 4
  %11 = alloca i64, align 8
  store ptr %0, ptr %6, align 8
  store ptr %1, ptr %7, align 8
  store i32 %2, ptr %8, align 4
  store i32 %3, ptr %9, align 4
  store i32 %4, ptr %10, align 4
  call void @llvm.lifetime.start.p0(i64 8, ptr %11) #24
  %12 = load ptr, ptr %6, align 8
  %13 = load ptr, ptr %7, align 8
  %14 = load i32, ptr %8, align 4
  %15 = load i32, ptr %9, align 4
  %16 = load i32, ptr %10, align 4
  %17 = call i64 @get_uint64_value(ptr noundef %12, ptr noundef %13, i32 noundef %14, i32 noundef %15, i32 noundef %16)
  store i64 %17, ptr %11, align 8
  %18 = load i32, ptr %9, align 4
  switch i32 %18, label %40 [
    i32 7, label %19
    i32 6, label %22
    i32 5, label %25
    i32 4, label %28
    i32 3, label %31
    i32 2, label %34
    i32 1, label %37
  ]

19:                                               ; preds = %5
  %20 = load i64, ptr %11, align 8
  %21 = call i64 @ws_sign_ext64(i64 noundef %20, i32 noundef 56)
  store i64 %21, ptr %11, align 8
  br label %40

22:                                               ; preds = %5
  %23 = load i64, ptr %11, align 8
  %24 = call i64 @ws_sign_ext64(i64 noundef %23, i32 noundef 48)
  store i64 %24, ptr %11, align 8
  br label %40

25:                                               ; preds = %5
  %26 = load i64, ptr %11, align 8
  %27 = call i64 @ws_sign_ext64(i64 noundef %26, i32 noundef 40)
  store i64 %27, ptr %11, align 8
  br label %40

28:                                               ; preds = %5
  %29 = load i64, ptr %11, align 8
  %30 = call i64 @ws_sign_ext64(i64 noundef %29, i32 noundef 32)
  store i64 %30, ptr %11, align 8
  br label %40

31:                                               ; preds = %5
  %32 = load i64, ptr %11, align 8
  %33 = call i64 @ws_sign_ext64(i64 noundef %32, i32 noundef 24)
  store i64 %33, ptr %11, align 8
  br label %40

34:                                               ; preds = %5
  %35 = load i64, ptr %11, align 8
  %36 = call i64 @ws_sign_ext64(i64 noundef %35, i32 noundef 16)
  store i64 %36, ptr %11, align 8
  br label %40

37:                                               ; preds = %5
  %38 = load i64, ptr %11, align 8
  %39 = call i64 @ws_sign_ext64(i64 noundef %38, i32 noundef 8)
  store i64 %39, ptr %11, align 8
  br label %40

40:                                               ; preds = %5, %37, %34, %31, %28, %25, %22, %19
  %41 = load i64, ptr %11, align 8
  call void @llvm.lifetime.end.p0(i64 8, ptr %11) #24
  ret i64 %41
}