; Function Attrs: inlinehint null_pointer_is_valid sspstrong uwtable
define internal fastcc i64 @get_int64_value(ptr noundef %0, ptr noundef %1, i32 noundef %2, i32 noundef %3, i32 noundef %4) unnamed_addr #17 {
  %6 = tail call i64 @tvb_get_uint64_with_length(ptr noundef %1, i32 noundef %2, i32 noundef %3, i32 noundef %4)
  %7 = add i32 %3, -9
  %or.cond.i = icmp ult i32 %7, -8
  br i1 %or.cond.i, label %8, label %get_uint64_value.exit

8:                                                ; preds = %5
  %9 = icmp eq i32 %3, 0
  br i1 %9, label %10, label %report_type_length_mismatch.exit.i

10:                                               ; preds = %8
  %11 = tail call ptr (ptr, ptr, ptr, ptr, ...) @expert_add_info_format(ptr noundef null, ptr noundef %0, ptr noundef nonnull @ei_type_length_mismatch_error, ptr noundef nonnull @.str.254, ptr noundef nonnull @.str.238, i32 noundef 0)
  tail call void @except_throw(i64 noundef 1, i64 noundef 3, ptr noundef null) #37
  unreachable

report_type_length_mismatch.exit.i:               ; preds = %8
  %12 = tail call ptr (ptr, ptr, ptr, ptr, ...) @expert_add_info_format(ptr noundef null, ptr noundef %0, ptr noundef nonnull @ei_type_length_mismatch_warn, ptr noundef nonnull @.str.254, ptr noundef nonnull @.str.238, i32 noundef %3)
  br label %get_uint64_value.exit

get_uint64_value.exit:                            ; preds = %5, %report_type_length_mismatch.exit.i
  switch i32 %3, label %34 [
    i32 7, label %13
    i32 6, label %16
    i32 5, label %19
    i32 4, label %22
    i32 3, label %25
    i32 2, label %28
    i32 1, label %31
  ]

13:                                               ; preds = %get_uint64_value.exit
  %14 = and i64 %6, 36028797018963968
  %.not.i = icmp eq i64 %14, 0
  %15 = select i1 %.not.i, i64 0, i64 -72057594037927936
  %.010.i = or i64 %15, %6
  br label %34

16:                                               ; preds = %get_uint64_value.exit
  %17 = and i64 %6, 140737488355328
  %.not.i13 = icmp eq i64 %17, 0
  %18 = select i1 %.not.i13, i64 0, i64 -281474976710656
  %.010.i14 = or i64 %18, %6
  br label %34

19:                                               ; preds = %get_uint64_value.exit
  %20 = and i64 %6, 549755813888
  %.not.i15 = icmp eq i64 %20, 0
  %21 = select i1 %.not.i15, i64 0, i64 -1099511627776
  %.010.i16 = or i64 %21, %6
  br label %34

22:                                               ; preds = %get_uint64_value.exit
  %23 = and i64 %6, 2147483648
  %.not.i17 = icmp eq i64 %23, 0
  %24 = select i1 %.not.i17, i64 0, i64 -4294967296
  %.010.i18 = or i64 %24, %6
  br label %34

25:                                               ; preds = %get_uint64_value.exit
  %26 = and i64 %6, 8388608
  %.not.i19 = icmp eq i64 %26, 0
  %27 = select i1 %.not.i19, i64 0, i64 -16777216
  %.010.i20 = or i64 %27, %6
  br label %34

28:                                               ; preds = %get_uint64_value.exit
  %29 = and i64 %6, 32768
  %.not.i21 = icmp eq i64 %29, 0
  %30 = select i1 %.not.i21, i64 0, i64 -65536
  %.010.i22 = or i64 %30, %6
  br label %34

31:                                               ; preds = %get_uint64_value.exit
  %32 = and i64 %6, 128
  %.not.i23 = icmp eq i64 %32, 0
  %33 = select i1 %.not.i23, i64 0, i64 -256
  %.010.i24 = or i64 %33, %6
  br label %34

34:                                               ; preds = %31, %28, %25, %22, %19, %16, %13, %get_uint64_value.exit
  %.0 = phi i64 [ %6, %get_uint64_value.exit ], [ %.010.i24, %31 ], [ %.010.i22, %28 ], [ %.010.i20, %25 ], [ %.010.i18, %22 ], [ %.010.i16, %19 ], [ %.010.i14, %16 ], [ %.010.i, %13 ]
  ret i64 %.0
}